target datalayout = "e-m:e-p270:32:32-p271:32:32-p272:64:64-i64:64-i128:128-f80:128-n8:16:32:64-S128"
target triple = "x86_64-pc-linux-gnu"

%struct._typeobject = type { %struct.PyVarObject, ptr, i64, i64, ptr, i64, ptr, ptr, ptr, ptr, ptr, ptr, ptr, ptr, ptr, ptr, ptr, ptr, ptr, i64, ptr, ptr, ptr, ptr, i64, ptr, ptr, ptr, ptr, ptr, ptr, ptr, ptr, ptr, i64, ptr, ptr, ptr, ptr, ptr, ptr, ptr, ptr, ptr, ptr, ptr, i32, ptr, ptr, i8, i16 }
%struct.PyVarObject = type { %struct._object, i64 }
%struct._object = type { %union.anon, ptr }
%union.anon = type { i64 }
%struct._ts = type { ptr, ptr, ptr, i64, %struct.anon.0, i32, i32, i32, i32, i32, i32, i32, i32, ptr, ptr, ptr, ptr, ptr, ptr, ptr, ptr, i32, ptr, i64, i64, ptr, i64, i32, ptr, ptr, ptr, i64, i64, ptr, ptr, ptr, %struct._err_stackitem, ptr, i64, ptr, ptr }
%struct.anon.0 = type { i32 }
%struct._err_stackitem = type { ptr, ptr }
%struct.anon = type { i32, i32 }

@PyExc_SystemError = external global ptr, align 8
@.str = private unnamed_addr constant [46 x i8] c"%R returned NULL without setting an exception\00", align 1
@.str.1 = private unnamed_addr constant [46 x i8] c"%s returned NULL without setting an exception\00", align 1
@.str.2 = private unnamed_addr constant [43 x i8] c"%R returned a result with an exception set\00", align 1
@.str.3 = private unnamed_addr constant [43 x i8] c"%s returned a result with an exception set\00", align 1
@_Py_tss_tstate = external thread_local global ptr, align 8

; Function Attrs: alwaysinline nounwind uwtable
define internal i32 @_Py_IsImmortal(ptr noundef %0) #3 {
  %2 = alloca ptr, align 8
  store ptr %0, ptr %2, align 8, !tbaa !9
  %3 = load ptr, ptr %2, align 8, !tbaa !9
  %4 = getelementptr inbounds nuw %struct._object, ptr %3, i32 0, i32 0
  %5 = getelementptr inbounds nuw %struct.anon, ptr %4, i32 0, i32 0
  %6 = load i32, ptr %5, align 8, !tbaa !24
  %7 = icmp slt i32 %6, 0
  %8 = zext i1 %7 to i32
  ret i32 %8
}

; Function Attrs: alwaysinline nounwind uwtable
define internal void @Py_DECREF(ptr noundef %0) #3 {
  %2 = alloca ptr, align 8
  store ptr %0, ptr %2, align 8, !tbaa !9
  %3 = load ptr, ptr %2, align 8, !tbaa !9
  %4 = call i32 @_Py_IsImmortal(ptr noundef %3)
  %5 = icmp ne i32 %4, 0
  br i1 %5, label %6, label %7

6:                                                ; preds = %1
  br label %16

7:                                                ; preds = %1
  %8 = load ptr, ptr %2, align 8, !tbaa !9
  %9 = getelementptr inbounds nuw %struct._object, ptr %8, i32 0, i32 0
  %10 = getelementptr inbounds nuw %struct.anon, ptr %9, i32 0, i32 0
  %11 = load i32, ptr %10, align 8, !tbaa !24
  %12 = add i32 %11, -1
  store i32 %12, ptr %10, align 8, !tbaa !24
  %13 = icmp eq i32 %12, 0
  br i1 %13, label %14, label %16

14:                                               ; preds = %7
  %15 = load ptr, ptr %2, align 8, !tbaa !9
  call void @_Py_Dealloc(ptr noundef %15)
  br label %16

16:                                               ; preds = %6, %14, %7
  ret void
}

; Function Attrs: inlinehint nounwind uwtable
define internal ptr @_PyErr_Occurred(ptr noundef %0) #1 {
  %2 = alloca ptr, align 8
  %3 = alloca ptr, align 8
  store ptr %0, ptr %3, align 8, !tbaa !4
  %4 = load ptr, ptr %3, align 8, !tbaa !4
  %5 = getelementptr inbounds nuw %struct._ts, ptr %4, i32 0, i32 18
  %6 = load ptr, ptr %5, align 8, !tbaa !13
  %7 = icmp eq ptr %6, null
  br i1 %7, label %8, label %9

8:                                                ; preds = %1
  store ptr null, ptr %2, align 8
  br label %14

9:                                                ; preds = %1
  %10 = load ptr, ptr %3, align 8, !tbaa !4
  %11 = getelementptr inbounds nuw %struct._ts, ptr %10, i32 0, i32 18
  %12 = load ptr, ptr %11, align 8, !tbaa !13
  %13 = call ptr @_Py_TYPE(ptr noundef %12)
  store ptr %13, ptr %2, align 8
  br label %14

14:                                               ; preds = %9, %8
  %15 = load ptr, ptr %2, align 8
  ret ptr %15
}

; Function Attrs: inlinehint nounwind uwtable
define internal i32 @PyType_HasFeature(ptr noundef %0, i64 noundef %1) #1 {
  %3 = alloca ptr, align 8
  %4 = alloca i64, align 8
  %5 = alloca i64, align 8
  store ptr %0, ptr %3, align 8, !tbaa !49
  store i64 %1, ptr %4, align 8, !tbaa !37
  call void @llvm.lifetime.start.p0(i64 8, ptr %5) #9
  %6 = load ptr, ptr %3, align 8, !tbaa !49
  %7 = getelementptr inbounds nuw %struct._typeobject, ptr %6, i32 0, i32 19
  %8 = load i64, ptr %7, align 8, !tbaa !46
  store i64 %8, ptr %5, align 8, !tbaa !37
  %9 = load i64, ptr %5, align 8, !tbaa !37
  %10 = load i64, ptr %4, align 8, !tbaa !37
  %11 = and i64 %9, %10
  %12 = icmp ne i64 %11, 0
  %13 = zext i1 %12 to i32
  call void @llvm.lifetime.end.p0(i64 8, ptr %5) #9
  ret i32 %13
}

; Function Attrs: inlinehint nounwind uwtable
define internal ptr @_Py_TYPE(ptr noundef %0) #1 {
  %2 = alloca ptr, align 8
  store ptr %0, ptr %2, align 8, !tbaa !9
  %3 = load ptr, ptr %2, align 8, !tbaa !9
  %4 = getelementptr inbounds nuw %struct._object, ptr %3, i32 0, i32 1
  %5 = load ptr, ptr %4, align 8, !tbaa !35
  ret ptr %5
}

; Function Attrs: nounwind uwtable
define dso_local ptr @_Py_CheckFunctionResult(ptr noundef %0, ptr noundef %1, ptr noundef %2, ptr noundef %3) #0 {
  %5 = alloca ptr, align 8
  %6 = alloca ptr, align 8
  %7 = alloca ptr, align 8
  %8 = alloca ptr, align 8
  %9 = alloca ptr, align 8
  store ptr %0, ptr %6, align 8, !tbaa !4
  store ptr %1, ptr %7, align 8, !tbaa !9
  store ptr %2, ptr %8, align 8, !tbaa !9
  store ptr %3, ptr %9, align 8, !tbaa !11
  %10 = load ptr, ptr %8, align 8, !tbaa !9
  %11 = icmp eq ptr %10, null
  br i1 %11, label %12, label %31

12:                                               ; preds = %4
  %13 = load ptr, ptr %6, align 8, !tbaa !4
  %14 = call ptr @_PyErr_Occurred(ptr noundef %13)
  %15 = icmp ne ptr %14, null
  br i1 %15, label %30, label %16

16:                                               ; preds = %12
  %17 = load ptr, ptr %7, align 8, !tbaa !9
  %18 = icmp ne ptr %17, null
  br i1 %18, label %19, label %24

19:                                               ; preds = %16
  %20 = load ptr, ptr %6, align 8, !tbaa !4
  %21 = load ptr, ptr @PyExc_SystemError, align 8, !tbaa !9
  %22 = load ptr, ptr %7, align 8, !tbaa !9
  %23 = call ptr (ptr, ptr, ptr, ...) @_PyErr_Format(ptr noundef %20, ptr noundef %21, ptr noundef @.str, ptr noundef %22)
  br label %29

24:                                               ; preds = %16
  %25 = load ptr, ptr %6, align 8, !tbaa !4
  %26 = load ptr, ptr @PyExc_SystemError, align 8, !tbaa !9
  %27 = load ptr, ptr %9, align 8, !tbaa !11
  %28 = call ptr (ptr, ptr, ptr, ...) @_PyErr_Format(ptr noundef %25, ptr noundef %26, ptr noundef @.str.1, ptr noundef %27)
  br label %29

29:                                               ; preds = %24, %19
  store ptr null, ptr %5, align 8
  br label %53

30:                                               ; preds = %12
  br label %51

31:                                               ; preds = %4
  %32 = load ptr, ptr %6, align 8, !tbaa !4
  %33 = call ptr @_PyErr_Occurred(ptr noundef %32)
  %34 = icmp ne ptr %33, null
  br i1 %34, label %35, label %50

35:                                               ; preds = %31
  %36 = load ptr, ptr %8, align 8, !tbaa !9
  call void @Py_DECREF(ptr noundef %36)
  %37 = load ptr, ptr %7, align 8, !tbaa !9
  %38 = icmp ne ptr %37, null
  br i1 %38, label %39, label %44

39:                                               ; preds = %35
  %40 = load ptr, ptr %6, align 8, !tbaa !4
  %41 = load ptr, ptr @PyExc_SystemError, align 8, !tbaa !9
  %42 = load ptr, ptr %7, align 8, !tbaa !9
  %43 = call ptr (ptr, ptr, ptr, ...) @_PyErr_FormatFromCauseTstate(ptr noundef %40, ptr noundef %41, ptr noundef @.str.2, ptr noundef %42)
  br label %49

44:                                               ; preds = %35
  %45 = load ptr, ptr %6, align 8, !tbaa !4
  %46 = load ptr, ptr @PyExc_SystemError, align 8, !tbaa !9
  %47 = load ptr, ptr %9, align 8, !tbaa !11
  %48 = call ptr (ptr, ptr, ptr, ...) @_PyErr_FormatFromCauseTstate(ptr noundef %45, ptr noundef %46, ptr noundef @.str.3, ptr noundef %47)
  br label %49

49:                                               ; preds = %44, %39
  store ptr null, ptr %5, align 8
  br label %53

50:                                               ; preds = %31
  br label %51

51:                                               ; preds = %50, %30
  %52 = load ptr, ptr %8, align 8, !tbaa !9
  store ptr %52, ptr %5, align 8
  br label %53

53:                                               ; preds = %51, %49, %29
  %54 = load ptr, ptr %5, align 8
  ret ptr %54
}

; Function Attrs: inlinehint nounwind uwtable
define internal i64 @_PyVectorcall_NARGS(i64 noundef %0) #1 {
  %2 = alloca i64, align 8
  store i64 %0, ptr %2, align 8, !tbaa !37
  %3 = load i64, ptr %2, align 8, !tbaa !37
  %4 = and i64 %3, 9223372036854775807
  ret i64 %4
}

; Function Attrs: inlinehint nounwind uwtable
define internal ptr @_PyVectorcall_FunctionInline(ptr noundef %0) #1 {
  %2 = alloca ptr, align 8
  %3 = alloca ptr, align 8
  %4 = alloca ptr, align 8
  %5 = alloca i32, align 4
  %6 = alloca i64, align 8
  %7 = alloca ptr, align 8
  store ptr %0, ptr %3, align 8, !tbaa !9
  call void @llvm.lifetime.start.p0(i64 8, ptr %4) #9
  %8 = load ptr, ptr %3, align 8, !tbaa !9
  %9 = call ptr @_Py_TYPE(ptr noundef %8)
  store ptr %9, ptr %4, align 8, !tbaa !49
  %10 = load ptr, ptr %4, align 8, !tbaa !49
  %11 = call i32 @PyType_HasFeature(ptr noundef %10, i64 noundef 2048)
  %12 = icmp ne i32 %11, 0
  br i1 %12, label %14, label %13

13:                                               ; preds = %1
  store ptr null, ptr %2, align 8
  store i32 1, ptr %5, align 4
  br label %22

14:                                               ; preds = %1
  call void @llvm.lifetime.start.p0(i64 8, ptr %6) #9
  %15 = load ptr, ptr %4, align 8, !tbaa !49
  %16 = getelementptr inbounds nuw %struct._typeobject, ptr %15, i32 0, i32 5
  %17 = load i64, ptr %16, align 8, !tbaa !51
  store i64 %17, ptr %6, align 8, !tbaa !37
  call void @llvm.lifetime.start.p0(i64 8, ptr %7) #9
  %18 = load ptr, ptr %3, align 8, !tbaa !9
  %19 = load i64, ptr %6, align 8, !tbaa !37
  %20 = getelementptr i8, ptr %18, i64 %19
  call void @llvm.memcpy.p0.p0.i64(ptr align 8 %7, ptr align 1 %20, i64 8, i1 false)
  %21 = load ptr, ptr %7, align 8, !tbaa !38
  store ptr %21, ptr %2, align 8
  store i32 1, ptr %5, align 4
  call void @llvm.lifetime.end.p0(i64 8, ptr %7) #9
  call void @llvm.lifetime.end.p0(i64 8, ptr %6) #9
  br label %22

22:                                               ; preds = %14, %13
  call void @llvm.lifetime.end.p0(i64 8, ptr %4) #9
  %23 = load ptr, ptr %2, align 8
  ret ptr %23
}

; Function Attrs: inlinehint nounwind uwtable
define internal ptr @_PyObject_VectorcallTstate(ptr noundef %0, ptr noundef %1, ptr noundef %2, i64 noundef %3, ptr noundef %4) #1 {
  %6 = alloca ptr, align 8
  %7 = alloca ptr, align 8
  %8 = alloca ptr, align 8
  %9 = alloca ptr, align 8
  %10 = alloca i64, align 8
  %11 = alloca ptr, align 8
  %12 = alloca ptr, align 8
  %13 = alloca ptr, align 8
  %14 = alloca i64, align 8
  %15 = alloca i32, align 4
  store ptr %0, ptr %7, align 8, !tbaa !4
  store ptr %1, ptr %8, align 8, !tbaa !9
  store ptr %2, ptr %9, align 8, !tbaa !36
  store i64 %3, ptr %10, align 8, !tbaa !37
  store ptr %4, ptr %11, align 8, !tbaa !9
  call void @llvm.lifetime.start.p0(i64 8, ptr %12) #9
  call void @llvm.lifetime.start.p0(i64 8, ptr %13) #9
  %16 = load ptr, ptr %8, align 8, !tbaa !9
  %17 = call ptr @_PyVectorcall_FunctionInline(ptr noundef %16)
  store ptr %17, ptr %12, align 8, !tbaa !38
  %18 = load ptr, ptr %12, align 8, !tbaa !38
  %19 = icmp eq ptr %18, null
  br i1 %19, label %20, label %29

20:                                               ; preds = %5
  call void @llvm.lifetime.start.p0(i64 8, ptr %14) #9
  %21 = load i64, ptr %10, align 8, !tbaa !37
  %22 = call i64 @_PyVectorcall_NARGS(i64 noundef %21)
  store i64 %22, ptr %14, align 8, !tbaa !37
  %23 = load ptr, ptr %7, align 8, !tbaa !4
  %24 = load ptr, ptr %8, align 8, !tbaa !9
  %25 = load ptr, ptr %9, align 8, !tbaa !36
  %26 = load i64, ptr %14, align 8, !tbaa !37
  %27 = load ptr, ptr %11, align 8, !tbaa !9
  %28 = call ptr @_PyObject_MakeTpCall(ptr noundef %23, ptr noundef %24, ptr noundef %25, i64 noundef %26, ptr noundef %27)
  store ptr %28, ptr %6, align 8
  store i32 1, ptr %15, align 4
  call void @llvm.lifetime.end.p0(i64 8, ptr %14) #9
  br label %40

29:                                               ; preds = %5
  %30 = load ptr, ptr %12, align 8, !tbaa !38
  %31 = load ptr, ptr %8, align 8, !tbaa !9
  %32 = load ptr, ptr %9, align 8, !tbaa !36
  %33 = load i64, ptr %10, align 8, !tbaa !37
  %34 = load ptr, ptr %11, align 8, !tbaa !9
  %35 = call ptr %30(ptr noundef %31, ptr noundef %32, i64 noundef %33, ptr noundef %34)
  store ptr %35, ptr %13, align 8, !tbaa !9
  %36 = load ptr, ptr %7, align 8, !tbaa !4
  %37 = load ptr, ptr %8, align 8, !tbaa !9
  %38 = load ptr, ptr %13, align 8, !tbaa !9
  %39 = call ptr @_Py_CheckFunctionResult(ptr noundef %36, ptr noundef %37, ptr noundef %38, ptr noundef null)
  store ptr %39, ptr %6, align 8
  store i32 1, ptr %15, align 4
  br label %40

40:                                               ; preds = %29, %20
  call void @llvm.lifetime.end.p0(i64 8, ptr %13) #9
  call void @llvm.lifetime.end.p0(i64 8, ptr %12) #9
  %41 = load ptr, ptr %6, align 8
  ret ptr %41
}

; Function Attrs: inlinehint nounwind uwtable
define internal ptr @_PyThreadState_GET() #1 {
  %1 = call align 8 ptr @llvm.threadlocal.address.p0(ptr align 8 @_Py_tss_tstate)
  %2 = load ptr, ptr %1, align 8, !tbaa !4
  ret ptr %2
}

; Function Attrs: nounwind uwtable
define dso_local ptr @PyObject_CallNoArgs(ptr noundef %0) #0 {
  %2 = alloca ptr, align 8
  %3 = alloca ptr, align 8
  store ptr %0, ptr %2, align 8, !tbaa !9
  call void @llvm.lifetime.start.p0(i64 8, ptr %3) #9
  %4 = call ptr @_PyThreadState_GET()
  store ptr %4, ptr %3, align 8, !tbaa !4
  %5 = load ptr, ptr %3, align 8, !tbaa !4
  %6 = load ptr, ptr %2, align 8, !tbaa !9
  %7 = call ptr @_PyObject_VectorcallTstate(ptr noundef %5, ptr noundef %6, ptr noundef null, i64 noundef 0, ptr noundef null)
  call void @llvm.lifetime.end.p0(i64 8, ptr %3) #9
  ret ptr %7
}