; Function Attrs: nounwind uwtable
define dso_local ptr @PyObject_CallNoArgs(ptr noundef %0) local_unnamed_addr #0 {
  %2 = tail call align 8 ptr @llvm.threadlocal.address.p0(ptr align 8 @_Py_tss_tstate)
  %3 = load ptr, ptr %2, align 8, !tbaa !25
  %4 = getelementptr i8, ptr %0, i64 8
  %.val.i.i = load ptr, ptr %4, align 8, !tbaa !20
  %5 = getelementptr i8, ptr %.val.i.i, i64 168
  %.val6.i.i = load i64, ptr %5, align 8, !tbaa !34
  %6 = and i64 %.val6.i.i, 2048
  %.not.i.i = icmp eq i64 %6, 0
  br i1 %.not.i.i, label %_PyVectorcall_FunctionInline.exit.thread.i, label %_PyVectorcall_FunctionInline.exit.i

_PyVectorcall_FunctionInline.exit.i:              ; preds = %1
  %7 = getelementptr inbounds nuw i8, ptr %.val.i.i, i64 56
  %8 = load i64, ptr %7, align 8, !tbaa !35
  %9 = getelementptr i8, ptr %0, i64 %8
  %.0.copyload.i.i = load ptr, ptr %9, align 1
  %10 = icmp eq ptr %.0.copyload.i.i, null
  br i1 %10, label %_PyVectorcall_FunctionInline.exit.thread.i, label %12

_PyVectorcall_FunctionInline.exit.thread.i:       ; preds = %_PyVectorcall_FunctionInline.exit.i, %1
  %11 = tail call ptr @_PyObject_MakeTpCall(ptr noundef %3, ptr noundef nonnull %0, ptr noundef null, i64 noundef 0, ptr noundef null)
  br label %_PyObject_VectorcallTstate.exit

12:                                               ; preds = %_PyVectorcall_FunctionInline.exit.i
  %13 = tail call ptr %.0.copyload.i.i(ptr noundef nonnull %0, ptr noundef null, i64 noundef 0, ptr noundef null) #10
  %14 = icmp eq ptr %13, null
  %15 = getelementptr i8, ptr %3, i64 112
  %.val.i = load ptr, ptr %15, align 8, !tbaa !4
  %16 = icmp eq ptr %.val.i, null
  br i1 %14, label %17, label %22

17:                                               ; preds = %12
  br i1 %16, label %19, label %_PyErr_Occurred.exit.i

_PyErr_Occurred.exit.i:                           ; preds = %17
  %18 = getelementptr i8, ptr %.val.i, i64 8
  %.val.i.i4 = load ptr, ptr %18, align 8, !tbaa !20
  %.not19.i = icmp eq ptr %.val.i.i4, null
  br i1 %.not19.i, label %19, label %_PyObject_VectorcallTstate.exit

19:                                               ; preds = %17, %_PyErr_Occurred.exit.i
  %20 = load ptr, ptr @PyExc_SystemError, align 8, !tbaa !23
  %21 = tail call ptr (ptr, ptr, ptr, ...) @_PyErr_Format(ptr noundef nonnull %3, ptr noundef %20, ptr noundef nonnull @.str, ptr noundef nonnull %0) #10
  br label %_PyObject_VectorcallTstate.exit

22:                                               ; preds = %12
  br i1 %16, label %_PyObject_VectorcallTstate.exit, label %_PyErr_Occurred.exit24.i

_PyErr_Occurred.exit24.i:                         ; preds = %22
  %23 = getelementptr i8, ptr %.val.i, i64 8
  %.val.i22.i = load ptr, ptr %23, align 8, !tbaa !20
  %.not.i = icmp eq ptr %.val.i22.i, null
  br i1 %.not.i, label %_PyObject_VectorcallTstate.exit, label %24

24:                                               ; preds = %_PyErr_Occurred.exit24.i
  %25 = load i32, ptr %13, align 8, !tbaa !24
  %.not.i.i2 = icmp sgt i32 %25, -1
  br i1 %.not.i.i2, label %26, label %30

26:                                               ; preds = %24
  %27 = add nsw i32 %25, -1
  store i32 %27, ptr %13, align 8, !tbaa !24
  %28 = icmp eq i32 %27, 0
  br i1 %28, label %29, label %30

29:                                               ; preds = %26
  tail call void @_Py_Dealloc(ptr noundef nonnull %13) #10
  br label %30

30:                                               ; preds = %24, %26, %29
  %31 = load ptr, ptr @PyExc_SystemError, align 8, !tbaa !23
  %32 = tail call ptr (ptr, ptr, ptr, ...) @_PyErr_FormatFromCauseTstate(ptr noundef nonnull %3, ptr noundef %31, ptr noundef nonnull @.str.2, ptr noundef nonnull %0) #10
  br label %_PyObject_VectorcallTstate.exit

_PyObject_VectorcallTstate.exit:                  ; preds = %30, %_PyErr_Occurred.exit24.i, %22, %19, %_PyErr_Occurred.exit.i, %_PyVectorcall_FunctionInline.exit.thread.i
  %.0.i = phi ptr [ %11, %_PyVectorcall_FunctionInline.exit.thread.i ], [ null, %19 ], [ null, %30 ], [ %13, %_PyErr_Occurred.exit24.i ], [ null, %_PyErr_Occurred.exit.i ], [ %13, %22 ]
  ret ptr %.0.i
}